Certificate:
    Data:
        Version: 3 (0x2)
        Serial Number: 15511907333701548816 (0xd7455d88ce0ebb10)
    Signature Algorithm: sha256WithRSAEncryption
        Issuer: C=AA, ST=Example State, O=CA Company, CN=example.com/emailAddress=CA@example.com
        Validity
            Not Before: Dec  8 21:13:59 2017 GMT
            Not After : Dec  6 21:13:59 2027 GMT
        Subject: C=AA, O=Client - 1 Company, CN=client-1.company/emailAddress=client-1@client-1.company
        Subject Public Key Info:
            Public Key Algorithm: rsaEncryption
                Public-Key: (2048 bit)
                Modulus:
                    00:cd:e5:cc:ae:47:30:e1:61:e5:7d:ec:e5:db:aa:
                    44:b5:ac:a6:b0:89:c3:1d:42:38:2a:cf:95:e1:59:
                    4b:1f:ce:13:a9:8a:95:b1:5e:12:eb:a5:23:dd:88:
                    1d:4f:2e:9e:62:48:66:d8:5d:18:ff:e7:e0:c7:0a:
                    69:b3:b7:9d:f0:50:83:9e:24:5c:88:f4:3b:fd:e4:
                    6e:0c:26:85:11:fb:b5:e8:3b:83:38:f9:08:3f:9d:
                    ba:b1:6b:c9:23:38:02:6c:75:e9:27:40:c7:d3:fa:
                    e0:10:d1:db:5e:75:ec:59:42:bf:56:ac:ec:5e:48:
                    43:6f:73:6d:2e:a7:86:01:8a:9a:6f:65:c4:ab:30:
                    2d:4d:89:fb:1a:c3:a2:ff:c9:e4:c4:bb:17:45:97:
                    9e:f5:5b:0c:67:9e:f6:c1:f0:31:19:4a:9f:4b:9f:
                    75:1e:56:66:33:ed:37:0f:b8:95:cd:b3:87:43:57:
                    77:9e:e8:67:23:49:ea:da:7c:e7:c3:ca:7b:1e:8a:
                    e1:77:70:2e:92:8d:5d:50:f3:aa:fb:8b:15:05:4e:
                    96:c3:36:b1:33:88:11:14:78:e4:b0:4c:4b:a7:68:
                    0c:79:fa:2e:19:6e:d4:51:40:3d:94:33:98:12:42:
                    ba:ed:43:4d:e5:7d:1a:74:5d:3a:42:77:48:d3:4f:
                    ac:11
                Exponent: 65537 (0x10001)
        X509v3 extensions:
            X509v3 Subject Key Identifier: 
                A0:BF:DD:A7:71:8C:22:10:07:DB:A6:1A:2B:80:E1:E7:80:53:2B:0D
            X509v3 Authority Key Identifier: 
                keyid:6D:1E:58:C9:18:82:35:9D:5D:3F:55:EE:28:FD:04:E7:6C:E8:21:0D

            X509v3 Basic Constraints: 
                CA:TRUE
    Signature Algorithm: sha256WithRSAEncryption
         97:5f:1a:55:89:8b:e1:6d:ed:61:85:4f:13:39:b2:89:11:68:
         eb:84:4f:d6:cf:f0:51:26:28:db:f7:c7:48:96:45:cf:7a:f6:
         97:78:36:51:4b:df:61:da:a2:27:57:2f:26:d6:19:99:76:96:
         56:93:6b:d7:71:cc:01:c5:33:ec:54:c5:cd:dc:d8:5b:54:83:
         4b:a8:19:4e:9a:44:39:f1:6f:5e:34:b5:a7:31:b0:da:1d:ed:
         67:79:41:df:46:70:40:d2:7b:de:87:18:06:20:34:3e:67:24:
         75:4e:f8:e5:9a:00:2a:09:0d:d3:31:05:b3:17:55:80:34:8f:
         e3:1a:1c:b3:8c:3f:2d:71:3e:e0:a0:79:d5:12:d6:d8:b2:e5:
         b3:19:cb:3d:f6:fb:8c:e1:ed:90:79:dc:92:f0:83:db:39:d6:
         e0:89:73:91:ff:77:26:30:b9:b2:9c:4a:b9:e6:a0:75:22:8e:
         7d:ba:ce:d9:3e:cc:d7:06:3f:f2:89:c6:25:11:47:88:26:08:
         b8:2f:c0:e2:cd:dc:e1:b6:b3:80:fa:d8:74:3f:c4:6a:ab:94:
         47:56:67:f5:cc:7e:89:31:d4:fb:ea:4d:57:22:7e:ad:8c:ae:
         14:7c:9e:3d:18:6a:f0:e1:81:72:f8:40:d2:e3:4b:55:c1:91:
         ac:a7:4d:57
-----BEGIN CERTIFICATE-----
MIIDsTCCApmgAwIBAgIJANdFXYjODrsQMA0GCSqGSIb3DQEBCwUAMG8xCzAJBgNV
BAYTAkFBMRYwFAYDVQQIDA1FeGFtcGxlIFN0YXRlMRMwEQYDVQQKDApDQSBDb21w
YW55MRQwEgYDVQQDDAtleGFtcGxlLmNvbTEdMBsGCSqGSIb3DQEJARYOQ0FAZXhh
bXBsZS5jb20wHhcNMTcxMjA4MjExMzU5WhcNMjcxMjA2MjExMzU5WjBvMQswCQYD
VQQGEwJBQTEbMBkGA1UECgwSQ2xpZW50IC0gMSBDb21wYW55MRkwFwYDVQQDDBBj
bGllbnQtMS5jb21wYW55MSgwJgYJKoZIhvcNAQkBFhljbGllbnQtMUBjbGllbnQt
MS5jb21wYW55MIIBIjANBgkqhkiG9w0BAQEFAAOCAQ8AMIIBCgKCAQEAzeXMrkcw
4WHlfezl26pEtaymsInDHUI4Ks+V4VlLH84TqYqVsV4S66Uj3YgdTy6eYkhm2F0Y
/+fgxwpps7ed8FCDniRciPQ7/eRuDCaFEfu16DuDOPkIP526sWvJIzgCbHXpJ0DH
0/rgENHbXnXsWUK/VqzsXkhDb3NtLqeGAYqab2XEqzAtTYn7GsOi/8nkxLsXRZee
9VsMZ572wfAxGUqfS591HlZmM+03D7iVzbOHQ1d3nuhnI0nq2nznw8p7Horhd3Au
ko1dUPOq+4sVBU6WwzaxM4gRFHjksExLp2gMefouGW7UUUA9lDOYEkK67UNN5X0a
dF06QndI00+sEQIDAQABo1AwTjAdBgNVHQ4EFgQUoL/dp3GMIhAH26YaK4Dh54BT
Kw0wHwYDVR0jBBgwFoAUbR5YyRiCNZ1dP1XuKP0E52zoIQ0wDAYDVR0TBAUwAwEB
/zANBgkqhkiG9w0BAQsFAAOCAQEAl18aVYmL4W3tYYVPEzmyiRFo64RP1s/wUSYo
2/fHSJZFz3r2l3g2UUvfYdqiJ1cvJtYZmXaWVpNr13HMAcUz7FTFzdzYW1SDS6gZ
TppEOfFvXjS1pzGw2h3tZ3lB30ZwQNJ73ocYBiA0PmckdU745ZoAKgkN0zEFsxdV
gDSP4xocs4w/LXE+4KB51RLW2LLlsxnLPfb7jOHtkHnckvCD2znW4Ilzkf93JjC5
spxKueagdSKOfbrO2T7M1wY/8onGJRFHiCYIuC/A4s3c4bazgPrYdD/EaquUR1Zn
9cx+iTHU++pNVyJ+rYyuFHyePRhq8OGBcvhA0uNLVcGRrKdNVw==
-----END CERTIFICATE-----
