Certificate:
    Data:
        Version: 3 (0x2)
        Serial Number:
            f6:98:eb:16:bd:e4:5e:f1
        Signature Algorithm: sha1WithRSAEncryption
        Issuer: C=US, ST=California, O=Demo CA, OU=ActiveMQ, CN=activemq.apache.org/emailAddress=activemq@example.com
        Validity
            Not Before: Mar 23 13:18:45 2016 GMT
            Not After : Mar 23 13:18:45 2017 GMT
        Subject: C=US, ST=California, O=Demo CA, OU=activemq, CN=client-1/emailAddress=client-1@example.com
        Subject Public Key Info:
            Public Key Algorithm: rsaEncryption
            RSA Public Key: (1024 bit)
                Modulus (1024 bit):
                    00:ac:f9:42:28:a5:47:a7:9b:b7:af:58:6b:c7:a2:
                    f3:1c:11:7f:94:c1:06:b4:d2:11:80:29:c1:74:c0:
                    a7:27:d5:bf:87:5c:6f:bb:2e:e0:68:70:75:79:72:
                    ea:5f:b5:07:6a:72:b4:cb:b8:05:12:a4:03:46:9f:
                    85:97:3d:e4:b0:ae:61:d8:28:a4:92:a2:b8:43:c5:
                    0f:a8:21:30:75:d4:94:71:61:d3:91:f3:0d:23:5f:
                    11:ab:04:44:5a:a7:c9:22:dc:ce:33:59:e5:64:cc:
                    59:02:0a:39:a5:19:4a:b7:7a:49:6f:25:ea:b9:fd:
                    38:9e:85:14:10:f7:e2:44:ad
                Exponent: 65537 (0x10001)
        X509v3 extensions:
            X509v3 Basic Constraints: 
                CA:FALSE
            Netscape Comment: 
                OpenSSL Generated Certificate
            X509v3 Subject Key Identifier: 
                FF:F7:76:66:CF:05:97:18:45:2D:BD:F7:34:F2:BA:D8:A1:6A:BE:2F
            X509v3 Authority Key Identifier: 
                keyid:D1:2A:05:9D:EC:16:6C:1E:06:31:08:BE:29:24:F5:51:3D:AF:00:1D

    Signature Algorithm: sha1WithRSAEncryption
        1c:73:5d:71:53:de:db:95:5e:8d:5e:d8:a5:4c:ed:f9:e5:55:
        04:c2:d8:9a:57:40:2a:12:95:03:57:50:b6:42:85:93:7a:d6:
        42:6e:f3:4a:01:a1:fa:f7:b3:d1:8a:7d:08:14:8b:fb:a8:62:
        ed:9a:af:4a:eb:59:2d:52:35:a7:67:e5:d7:68:c1:d4:ce:a9:
        a2:c1:40:36:20:6c:2d:bc:5d:2a:70:6b:9c:71:43:19:04:c8:
        88:c0:40:e0:8f:1f:e0:8c:8a:87:1e:84:16:33:07:e5:f7:7a:
        3b:c2:6d:8a:cf:e6:e4:fc:3f:22:59:34:0c:5a:01:8d:cd:61:
        42:08
-----BEGIN CERTIFICATE-----
MIIDAzCCAmygAwIBAgIJAPaY6xa95F7xMA0GCSqGSIb3DQEBBQUAMIGKMQswCQYD
VQQGEwJVUzETMBEGA1UECBMKQ2FsaWZvcm5pYTEQMA4GA1UEChMHRGVtbyBDQTER
MA8GA1UECxMIQWN0aXZlTVExHDAaBgNVBAMTE2FjdGl2ZW1xLmFwYWNoZS5vcmcx
IzAhBgkqhkiG9w0BCQEWFGFjdGl2ZW1xQGV4YW1wbGUuY29tMB4XDTE2MDMyMzEz
MTg0NVoXDTE3MDMyMzEzMTg0NVowfzELMAkGA1UEBhMCVVMxEzARBgNVBAgTCkNh
bGlmb3JuaWExEDAOBgNVBAoTB0RlbW8gQ0ExETAPBgNVBAsTCGFjdGl2ZW1xMREw
DwYDVQQDEwhjbGllbnQtMTEjMCEGCSqGSIb3DQEJARYUY2xpZW50LTFAZXhhbXBs
ZS5jb20wgZ8wDQYJKoZIhvcNAQEBBQADgY0AMIGJAoGBAKz5QiilR6ebt69Ya8ei
8xwRf5TBBrTSEYApwXTApyfVv4dcb7su4GhwdXly6l+1B2pytMu4BRKkA0afhZc9
5LCuYdgopJKiuEPFD6ghMHXUlHFh05HzDSNfEasERFqnySLczjNZ5WTMWQIKOaUZ
Srd6SW8l6rn9OJ6FFBD34kStAgMBAAGjezB5MAkGA1UdEwQCMAAwLAYJYIZIAYb4
QgENBB8WHU9wZW5TU0wgR2VuZXJhdGVkIENlcnRpZmljYXRlMB0GA1UdDgQWBBT/
93ZmzwWXGEUtvfc08rrYoWq+LzAfBgNVHSMEGDAWgBTRKgWd7BZsHgYxCL4pJPVR
Pa8AHTANBgkqhkiG9w0BAQUFAAOBgQAcc11xU97blV6NXtilTO355VUEwtiaV0Aq
EpUDV1C2QoWTetZCbvNKAaH697PRin0IFIv7qGLtmq9K61ktUjWnZ+XXaMHUzqmi
wUA2IGwtvF0qcGuccUMZBMiIwEDgjx/gjIqHHoQWMwfl93o7wm2Kz+bk/D8iWTQM
WgGNzWFCCA==
-----END CERTIFICATE-----
