Certificate:
    Data:
        Version: 3 (0x2)
        Serial Number: 15511907333701548813 (0xd7455d88ce0ebb0d)
    Signature Algorithm: sha256WithRSAEncryption
        Issuer: C=AA, ST=Example State, O=CA Company, CN=example.com/emailAddress=CA@example.com
        Validity
            Not Before: Dec  8 20:55:45 2017 GMT
            Not After : Nov 14 20:55:45 2117 GMT
        Subject: C=AA, ST=Example State, O=CA Company, CN=example.com/emailAddress=CA@example.com
        Subject Public Key Info:
            Public Key Algorithm: rsaEncryption
                Public-Key: (2048 bit)
                Modulus:
                    00:9a:39:1e:2a:78:e2:25:35:38:8d:ae:15:72:d5:
                    8a:3a:7e:84:66:8e:72:e5:61:de:8e:c8:23:8c:5c:
                    56:c3:19:4d:f5:73:98:01:31:b7:a4:a6:84:2d:65:
                    13:3c:dc:9b:25:18:ff:48:20:dc:22:8a:40:34:c5:
                    e4:8a:f2:ec:a1:96:74:47:a2:34:b7:50:ac:23:99:
                    4f:d7:4d:b8:b3:a0:f2:8b:60:34:53:66:91:2f:fa:
                    6a:3d:a0:43:12:1d:6e:d1:51:84:5f:07:c7:f1:79:
                    1d:5a:cf:e1:84:72:42:03:f7:eb:60:8c:e5:24:b1:
                    75:31:14:13:17:93:b5:af:64:33:c2:99:1c:42:4b:
                    2f:d6:46:f6:d6:96:d1:a7:ac:04:61:d3:c3:71:c0:
                    20:bd:d1:f4:57:89:ae:38:d7:90:50:88:02:44:ff:
                    fb:ac:10:3b:39:b9:68:59:dc:1c:01:78:d7:83:a5:
                    6b:9c:62:b5:8f:23:74:45:c3:d7:59:db:26:34:56:
                    91:e2:bc:02:6b:e9:44:6a:17:94:c3:b9:0b:d7:c5:
                    47:ec:1a:b0:1c:e3:54:de:c1:06:96:aa:49:a8:e7:
                    80:01:79:4d:a5:7c:95:4a:22:ae:dc:40:a1:f8:eb:
                    6e:06:b5:21:61:98:4d:31:95:03:d8:1b:5b:03:bc:
                    d0:33
                Exponent: 65537 (0x10001)
        X509v3 extensions:
            X509v3 Subject Key Identifier: 
                6D:1E:58:C9:18:82:35:9D:5D:3F:55:EE:28:FD:04:E7:6C:E8:21:0D
            X509v3 Authority Key Identifier: 
                keyid:6D:1E:58:C9:18:82:35:9D:5D:3F:55:EE:28:FD:04:E7:6C:E8:21:0D

            X509v3 Basic Constraints: 
                CA:TRUE
    Signature Algorithm: sha256WithRSAEncryption
         1b:67:d9:8c:83:0b:a7:ab:1e:23:1e:b0:8b:80:db:d1:fa:e0:
         6c:cf:f1:6e:6d:e8:d5:56:ca:a0:d1:8c:5d:0d:03:0e:aa:e7:
         e7:64:e8:80:14:e0:87:35:eb:cd:6e:4a:0b:8c:e6:c3:1a:34:
         5c:11:49:d0:78:01:0f:f5:aa:f4:e3:67:e5:ae:3a:c6:2b:70:
         d9:64:a9:f3:28:b1:5c:1f:00:36:77:c9:f9:84:f7:9a:25:b3:
         7f:bc:de:6f:49:08:02:1f:c6:55:6f:7f:c5:5f:60:aa:0a:42:
         2b:c9:3c:af:48:3e:bf:08:39:48:b2:f4:b7:a3:71:92:3d:fe:
         9c:54:6e:15:75:5e:0f:44:6e:04:af:57:88:66:38:6e:83:3f:
         dd:4a:3e:38:4c:91:e7:bb:c6:bc:45:b3:d5:00:0b:e3:25:1c:
         44:61:1d:5b:97:cf:8c:53:72:60:dd:d4:08:24:4e:03:ff:d2:
         90:3b:04:d4:c5:2e:88:c1:a9:92:cc:17:9c:41:4b:e9:6a:4b:
         79:72:72:c5:65:68:5b:e7:33:cb:c3:e5:e7:36:33:41:3b:14:
         fa:2b:c8:b4:26:7c:f2:79:b8:4e:dd:0d:fa:d2:69:ab:45:cb:
         67:f8:b2:33:3d:4f:67:4e:08:46:c6:5b:93:da:e2:3c:83:ce:
         eb:fd:f3:fe
-----BEGIN CERTIFICATE-----
MIIDszCCApugAwIBAgIJANdFXYjODrsNMA0GCSqGSIb3DQEBCwUAMG8xCzAJBgNV
BAYTAkFBMRYwFAYDVQQIDA1FeGFtcGxlIFN0YXRlMRMwEQYDVQQKDApDQSBDb21w
YW55MRQwEgYDVQQDDAtleGFtcGxlLmNvbTEdMBsGCSqGSIb3DQEJARYOQ0FAZXhh
bXBsZS5jb20wIBcNMTcxMjA4MjA1NTQ1WhgPMjExNzExMTQyMDU1NDVaMG8xCzAJ
BgNVBAYTAkFBMRYwFAYDVQQIDA1FeGFtcGxlIFN0YXRlMRMwEQYDVQQKDApDQSBD
b21wYW55MRQwEgYDVQQDDAtleGFtcGxlLmNvbTEdMBsGCSqGSIb3DQEJARYOQ0FA
ZXhhbXBsZS5jb20wggEiMA0GCSqGSIb3DQEBAQUAA4IBDwAwggEKAoIBAQCaOR4q
eOIlNTiNrhVy1Yo6foRmjnLlYd6OyCOMXFbDGU31c5gBMbekpoQtZRM83JslGP9I
INwiikA0xeSK8uyhlnRHojS3UKwjmU/XTbizoPKLYDRTZpEv+mo9oEMSHW7RUYRf
B8fxeR1az+GEckID9+tgjOUksXUxFBMXk7WvZDPCmRxCSy/WRvbWltGnrARh08Nx
wCC90fRXia4415BQiAJE//usEDs5uWhZ3BwBeNeDpWucYrWPI3RFw9dZ2yY0VpHi
vAJr6URqF5TDuQvXxUfsGrAc41TewQaWqkmo54ABeU2lfJVKIq7cQKH4624GtSFh
mE0xlQPYG1sDvNAzAgMBAAGjUDBOMB0GA1UdDgQWBBRtHljJGII1nV0/Ve4o/QTn
bOghDTAfBgNVHSMEGDAWgBRtHljJGII1nV0/Ve4o/QTnbOghDTAMBgNVHRMEBTAD
AQH/MA0GCSqGSIb3DQEBCwUAA4IBAQAbZ9mMgwunqx4jHrCLgNvR+uBsz/FubejV
Vsqg0YxdDQMOqufnZOiAFOCHNevNbkoLjObDGjRcEUnQeAEP9ar042flrjrGK3DZ
ZKnzKLFcHwA2d8n5hPeaJbN/vN5vSQgCH8ZVb3/FX2CqCkIryTyvSD6/CDlIsvS3
o3GSPf6cVG4VdV4PRG4Er1eIZjhugz/dSj44TJHnu8a8RbPVAAvjJRxEYR1bl8+M
U3Jg3dQIJE4D/9KQOwTUxS6IwamSzBecQUvpakt5cnLFZWhb5zPLw+XnNjNBOxT6
K8i0JnzyebhO3Q360mmrRctn+LIzPU9nTghGxluT2uI8g87r/fP+
-----END CERTIFICATE-----
