Certificate:
    Data:
        Version: 3 (0x2)
        Serial Number:
            f6:98:eb:16:bd:e4:5e:f0
        Signature Algorithm: sha1WithRSAEncryption
        Issuer: C=US, ST=California, O=Demo CA, OU=ActiveMQ, CN=activemq.apache.org/emailAddress=activemq@example.com
        Validity
            Not Before: Mar 23 13:08:32 2016 GMT
            Not After : Mar 23 13:08:32 2017 GMT
        Subject: C=US, ST=California, O=Demo CA, OU=ActiveMQ, CN=broker
        Subject Public Key Info:
            Public Key Algorithm: rsaEncryption
            RSA Public Key: (1024 bit)
                Modulus (1024 bit):
                    00:d5:3c:95:38:f5:6e:8f:f3:6b:e5:aa:4a:9b:d0:
                    53:6b:90:02:42:d9:9f:af:da:d5:ca:f8:c2:ed:53:
                    b7:ca:95:14:fe:9d:b8:52:80:24:8d:21:5e:d7:46:
                    97:67:67:e8:b9:5d:5c:39:6e:92:72:d3:a9:a3:97:
                    a4:49:4c:cb:d9:02:df:f6:60:30:3d:cd:2c:dc:db:
                    1e:33:a5:ca:e1:ac:d7:40:bd:01:26:0e:ed:c0:34:
                    3b:14:1c:81:7f:9f:b1:83:b3:1b:3b:5d:7b:d0:af:
                    f7:04:fe:4e:e9:9f:3a:b7:bf:7a:16:de:ef:17:e5:
                    0f:9d:b3:91:4b:9b:18:33:67
                Exponent: 65537 (0x10001)
        X509v3 extensions:
            X509v3 Basic Constraints: 
                CA:FALSE
            Netscape Comment: 
                OpenSSL Generated Certificate
            X509v3 Subject Key Identifier: 
                BF:96:30:98:3B:76:38:41:B9:60:3D:06:56:A8:C2:99:67:C2:41:4C
            X509v3 Authority Key Identifier: 
                keyid:D1:2A:05:9D:EC:16:6C:1E:06:31:08:BE:29:24:F5:51:3D:AF:00:1D

    Signature Algorithm: sha1WithRSAEncryption
        54:4c:fc:2b:62:d8:04:c6:88:e5:06:9e:8b:c3:0b:a1:d5:cd:
        df:17:dc:fe:44:56:25:2a:9b:a1:d8:62:ec:c8:82:20:1c:ea:
        9e:3b:54:ba:c4:9c:a7:22:cb:1a:ab:29:bf:a9:04:43:5d:c8:
        f3:f9:29:d5:5f:52:5e:bc:2b:0e:97:89:ec:5e:28:69:ab:6e:
        d1:a2:0f:17:7c:c0:bf:d2:7b:4b:f7:70:e6:04:0f:e4:d9:20:
        7d:16:62:2d:d9:3f:98:15:d1:7f:ff:d8:9e:5f:35:38:c6:f9:
        95:36:50:67:70:4d:89:8d:ca:42:aa:76:e6:3f:52:66:84:b0:
        7d:d2
-----BEGIN CERTIFICATE-----
MIIC3DCCAkWgAwIBAgIJAPaY6xa95F7wMA0GCSqGSIb3DQEBBQUAMIGKMQswCQYD
VQQGEwJVUzETMBEGA1UECBMKQ2FsaWZvcm5pYTEQMA4GA1UEChMHRGVtbyBDQTER
MA8GA1UECxMIQWN0aXZlTVExHDAaBgNVBAMTE2FjdGl2ZW1xLmFwYWNoZS5vcmcx
IzAhBgkqhkiG9w0BCQEWFGFjdGl2ZW1xQGV4YW1wbGUuY29tMB4XDTE2MDMyMzEz
MDgzMloXDTE3MDMyMzEzMDgzMlowWDELMAkGA1UEBhMCVVMxEzARBgNVBAgTCkNh
bGlmb3JuaWExEDAOBgNVBAoTB0RlbW8gQ0ExETAPBgNVBAsTCEFjdGl2ZU1RMQ8w
DQYDVQQDEwZicm9rZXIwgZ8wDQYJKoZIhvcNAQEBBQADgY0AMIGJAoGBANU8lTj1
bo/za+WqSpvQU2uQAkLZn6/a1cr4wu1Tt8qVFP6duFKAJI0hXtdGl2dn6LldXDlu
knLTqaOXpElMy9kC3/ZgMD3NLNzbHjOlyuGs10C9ASYO7cA0OxQcgX+fsYOzGztd
e9Cv9wT+TumfOre/ehbe7xflD52zkUubGDNnAgMBAAGjezB5MAkGA1UdEwQCMAAw
LAYJYIZIAYb4QgENBB8WHU9wZW5TU0wgR2VuZXJhdGVkIENlcnRpZmljYXRlMB0G
A1UdDgQWBBS/ljCYO3Y4QblgPQZWqMKZZ8JBTDAfBgNVHSMEGDAWgBTRKgWd7BZs
HgYxCL4pJPVRPa8AHTANBgkqhkiG9w0BAQUFAAOBgQBUTPwrYtgExojlBp6Lwwuh
1c3fF9z+RFYlKpuh2GLsyIIgHOqeO1S6xJynIssaqym/qQRDXcjz+SnVX1JevCsO
l4nsXihpq27Rog8XfMC/0ntL93DmBA/k2SB9FmIt2T+YFdF//9ieXzU4xvmVNlBn
cE2JjcpCqnbmP1JmhLB90g==
-----END CERTIFICATE-----
