Certificate:
    Data:
        Version: 3 (0x2)
        Serial Number: 15511907333701548815 (0xd7455d88ce0ebb0f)
    Signature Algorithm: sha256WithRSAEncryption
        Issuer: C=AA, ST=Example State, O=CA Company, CN=example.com/emailAddress=CA@example.com
        Validity
            Not Before: Dec  8 21:08:49 2017 GMT
            Not After : Dec  6 21:08:49 2027 GMT
        Subject: C=AA, O=Broker Company, CN=broker.example/emailAddress=broker@broker.example
        Subject Public Key Info:
            Public Key Algorithm: rsaEncryption
                Public-Key: (2048 bit)
                Modulus:
                    00:db:73:56:a5:1d:45:2d:6d:ee:e9:f7:82:1f:83:
                    6c:1f:61:d8:1a:1a:50:a6:7f:09:91:db:6e:5c:81:
                    4b:fa:25:cc:a3:ed:02:ca:58:bb:14:6d:80:80:8b:
                    a1:f2:2b:57:b8:ef:4d:22:29:be:bf:b7:c9:1d:fc:
                    62:49:8b:2c:9d:23:51:d4:8b:69:a1:27:44:33:08:
                    d5:b3:82:14:6a:ee:84:a7:a1:15:6e:6b:e1:72:5b:
                    5b:b9:c2:3b:22:49:7f:76:80:03:28:cd:40:fe:88:
                    04:68:e9:66:df:ea:b7:2f:90:67:6d:57:89:2e:fa:
                    76:96:a8:d0:0a:df:db:d3:43:83:6b:1d:27:24:50:
                    7c:de:cd:a3:9e:30:d2:ed:69:a4:b6:b2:da:38:73:
                    94:36:7a:63:5e:34:2c:62:31:86:bf:68:84:3e:fd:
                    3e:73:58:85:93:1a:de:d5:1b:78:33:56:ed:09:0a:
                    19:9c:4d:b0:99:b1:79:50:d2:17:d3:1b:d4:19:51:
                    34:dd:29:3b:db:ee:7c:0e:c5:98:f3:e1:84:9a:28:
                    b8:63:09:17:ed:1d:41:a1:eb:57:7e:c8:10:22:65:
                    a8:57:4c:4e:dd:34:98:72:b4:10:cb:fb:e7:91:9c:
                    f6:be:80:b7:9e:af:03:2d:04:1e:c6:7d:22:08:9f:
                    07:77
                Exponent: 65537 (0x10001)
        X509v3 extensions:
            X509v3 Subject Key Identifier: 
                C3:76:33:04:31:6E:36:F2:BF:8F:1B:12:D6:72:3F:1F:FE:3D:DF:82
            X509v3 Authority Key Identifier: 
                keyid:6D:1E:58:C9:18:82:35:9D:5D:3F:55:EE:28:FD:04:E7:6C:E8:21:0D

            X509v3 Basic Constraints: 
                CA:TRUE
    Signature Algorithm: sha256WithRSAEncryption
         2b:b4:31:01:f3:82:1b:e3:a1:69:96:90:1e:09:09:f9:17:ae:
         62:21:09:29:12:7f:97:d1:58:8e:57:8b:9b:62:1a:c8:48:ad:
         c4:96:aa:46:e3:30:fd:bd:8e:e4:08:85:7e:30:33:93:8c:fa:
         2e:80:f8:af:32:de:28:c3:7a:4d:fd:20:e3:2e:59:87:d8:e0:
         bf:1e:ed:db:9c:ac:12:b2:88:ea:84:6b:4d:7f:85:79:15:f1:
         ac:e1:af:cf:b3:74:7d:d3:4d:e2:5b:ed:c4:5e:47:26:d1:6f:
         fe:3e:cf:25:97:b5:f1:46:ff:13:de:b8:aa:3f:f2:05:eb:a5:
         2c:1f:ba:75:1f:34:f6:ac:d1:1c:8d:13:94:a7:96:9d:20:55:
         b8:12:c0:f7:dc:24:10:02:0b:32:1c:72:0c:09:8b:40:a4:d0:
         ac:0c:6f:4b:36:ff:99:88:4f:60:49:45:89:94:11:90:d6:2b:
         2e:13:14:cd:0a:bb:21:95:85:38:1a:09:a9:c2:e1:dd:3e:4b:
         d5:4a:36:af:77:af:36:af:25:97:27:45:97:94:3a:27:d8:9d:
         63:a9:0c:f4:37:63:84:9b:45:dc:50:31:6f:8f:23:63:b1:b5:
         27:3f:63:89:f2:4b:08:b8:04:c3:80:41:d6:74:62:84:ce:c0:
         f0:42:7d:57
-----BEGIN CERTIFICATE-----
MIIDpzCCAo+gAwIBAgIJANdFXYjODrsPMA0GCSqGSIb3DQEBCwUAMG8xCzAJBgNV
BAYTAkFBMRYwFAYDVQQIDA1FeGFtcGxlIFN0YXRlMRMwEQYDVQQKDApDQSBDb21w
YW55MRQwEgYDVQQDDAtleGFtcGxlLmNvbTEdMBsGCSqGSIb3DQEJARYOQ0FAZXhh
bXBsZS5jb20wHhcNMTcxMjA4MjEwODQ5WhcNMjcxMjA2MjEwODQ5WjBlMQswCQYD
VQQGEwJBQTEXMBUGA1UECgwOQnJva2VyIENvbXBhbnkxFzAVBgNVBAMMDmJyb2tl
ci5leGFtcGxlMSQwIgYJKoZIhvcNAQkBFhVicm9rZXJAYnJva2VyLmV4YW1wbGUw
ggEiMA0GCSqGSIb3DQEBAQUAA4IBDwAwggEKAoIBAQDbc1alHUUtbe7p94Ifg2wf
YdgaGlCmfwmR225cgUv6Jcyj7QLKWLsUbYCAi6HyK1e4700iKb6/t8kd/GJJiyyd
I1HUi2mhJ0QzCNWzghRq7oSnoRVua+FyW1u5wjsiSX92gAMozUD+iARo6Wbf6rcv
kGdtV4ku+naWqNAK39vTQ4NrHSckUHzezaOeMNLtaaS2sto4c5Q2emNeNCxiMYa/
aIQ+/T5zWIWTGt7VG3gzVu0JChmcTbCZsXlQ0hfTG9QZUTTdKTvb7nwOxZjz4YSa
KLhjCRftHUGh61d+yBAiZahXTE7dNJhytBDL++eRnPa+gLeerwMtBB7GfSIInwd3
AgMBAAGjUDBOMB0GA1UdDgQWBBTDdjMEMW428r+PGxLWcj8f/j3fgjAfBgNVHSME
GDAWgBRtHljJGII1nV0/Ve4o/QTnbOghDTAMBgNVHRMEBTADAQH/MA0GCSqGSIb3
DQEBCwUAA4IBAQArtDEB84Ib46FplpAeCQn5F65iIQkpEn+X0ViOV4ubYhrISK3E
lqpG4zD9vY7kCIV+MDOTjPougPivMt4ow3pN/SDjLlmH2OC/Hu3bnKwSsojqhGtN
f4V5FfGs4a/Ps3R9003iW+3EXkcm0W/+Ps8ll7XxRv8T3riqP/IF66UsH7p1HzT2
rNEcjROUp5adIFW4EsD33CQQAgsyHHIMCYtApNCsDG9LNv+ZiE9gSUWJlBGQ1isu
ExTNCrshlYU4GgmpwuHdPkvVSjavd682ryWXJ0WXlDon2J1jqQz0N2OEm0XcUDFv
jyNjsbUnP2OJ8ksIuATDgEHWdGKEzsDwQn1X
-----END CERTIFICATE-----
