Certificate:
    Data:
        Version: 3 (0x2)
        Serial Number:
            f6:98:eb:16:bd:e4:5e:ef
        Signature Algorithm: sha1WithRSAEncryption
        Issuer: C=US, ST=California, O=Demo CA, OU=ActiveMQ, CN=activemq.apache.org/emailAddress=activemq@example.com
        Validity
            Not Before: Mar 23 12:56:04 2016 GMT
            Not After : Mar 23 12:56:04 2019 GMT
        Subject: C=US, ST=California, O=Demo CA, OU=ActiveMQ, CN=activemq.apache.org/emailAddress=activemq@example.com
        Subject Public Key Info:
            Public Key Algorithm: rsaEncryption
            RSA Public Key: (1024 bit)
                Modulus (1024 bit):
                    00:c6:cc:c6:5a:b3:bb:15:d2:10:03:1b:30:39:55:
                    ae:63:41:49:f0:5f:4d:8d:b4:f5:ce:85:2b:aa:06:
                    1e:14:99:05:bb:4e:c4:0a:c4:3f:da:1f:f5:ab:00:
                    1c:1e:c1:70:83:ba:ea:86:7a:de:c0:5b:c1:9b:2e:
                    34:42:ad:76:df:a9:db:5d:08:e4:88:04:20:56:6e:
                    89:f9:72:8c:3b:77:56:c2:5c:1c:09:02:0d:3d:06:
                    15:ea:31:8d:3d:90:4c:73:c9:f8:2f:bb:ed:7d:41:
                    1e:f1:c0:91:85:67:fa:38:27:86:25:76:d6:ae:12:
                    e0:da:d2:76:d1:fa:36:02:b5
                Exponent: 65537 (0x10001)
        X509v3 extensions:
            X509v3 Subject Key Identifier: 
                D1:2A:05:9D:EC:16:6C:1E:06:31:08:BE:29:24:F5:51:3D:AF:00:1D
            X509v3 Authority Key Identifier: 
                keyid:D1:2A:05:9D:EC:16:6C:1E:06:31:08:BE:29:24:F5:51:3D:AF:00:1D
                DirName:/C=US/ST=California/O=Demo CA/OU=ActiveMQ/CN=activemq.apache.org/emailAddress=activemq@example.com
                serial:F6:98:EB:16:BD:E4:5E:EF

            X509v3 Basic Constraints: 
                CA:TRUE
    Signature Algorithm: sha1WithRSAEncryption
        53:fd:87:88:7e:cc:80:83:a1:09:7b:79:dc:45:9c:c7:4e:6b:
        21:37:7e:fe:31:ef:ac:67:22:9a:42:96:d8:70:f7:99:49:be:
        fa:dc:11:05:ff:71:6a:9a:a4:6f:c5:29:68:11:9e:c7:fc:f4:
        5e:ff:f1:74:2f:e6:9f:38:7e:09:c9:31:2d:b0:2a:89:ea:ba:
        24:eb:25:66:72:15:5b:20:3c:b3:6d:b7:bf:93:d1:6d:6b:44:
        f1:83:60:0e:de:d6:9a:68:bf:6f:12:15:b3:12:2f:e5:a0:93:
        95:f5:06:fb:6e:4a:55:dd:8c:a9:0f:c3:04:cc:57:3e:fb:be:
        b0:17
-----BEGIN CERTIFICATE-----
MIIDhzCCAvCgAwIBAgIJAPaY6xa95F7vMA0GCSqGSIb3DQEBBQUAMIGKMQswCQYD
VQQGEwJVUzETMBEGA1UECBMKQ2FsaWZvcm5pYTEQMA4GA1UEChMHRGVtbyBDQTER
MA8GA1UECxMIQWN0aXZlTVExHDAaBgNVBAMTE2FjdGl2ZW1xLmFwYWNoZS5vcmcx
IzAhBgkqhkiG9w0BCQEWFGFjdGl2ZW1xQGV4YW1wbGUuY29tMB4XDTE2MDMyMzEy
NTYwNFoXDTE5MDMyMzEyNTYwNFowgYoxCzAJBgNVBAYTAlVTMRMwEQYDVQQIEwpD
YWxpZm9ybmlhMRAwDgYDVQQKEwdEZW1vIENBMREwDwYDVQQLEwhBY3RpdmVNUTEc
MBoGA1UEAxMTYWN0aXZlbXEuYXBhY2hlLm9yZzEjMCEGCSqGSIb3DQEJARYUYWN0
aXZlbXFAZXhhbXBsZS5jb20wgZ8wDQYJKoZIhvcNAQEBBQADgY0AMIGJAoGBAMbM
xlqzuxXSEAMbMDlVrmNBSfBfTY209c6FK6oGHhSZBbtOxArEP9of9asAHB7BcIO6
6oZ63sBbwZsuNEKtdt+p210I5IgEIFZuiflyjDt3VsJcHAkCDT0GFeoxjT2QTHPJ
+C+77X1BHvHAkYVn+jgnhiV21q4S4NrSdtH6NgK1AgMBAAGjgfIwge8wHQYDVR0O
BBYEFNEqBZ3sFmweBjEIvikk9VE9rwAdMIG/BgNVHSMEgbcwgbSAFNEqBZ3sFmwe
BjEIvikk9VE9rwAdoYGQpIGNMIGKMQswCQYDVQQGEwJVUzETMBEGA1UECBMKQ2Fs
aWZvcm5pYTEQMA4GA1UEChMHRGVtbyBDQTERMA8GA1UECxMIQWN0aXZlTVExHDAa
BgNVBAMTE2FjdGl2ZW1xLmFwYWNoZS5vcmcxIzAhBgkqhkiG9w0BCQEWFGFjdGl2
ZW1xQGV4YW1wbGUuY29tggkA9pjrFr3kXu8wDAYDVR0TBAUwAwEB/zANBgkqhkiG
9w0BAQUFAAOBgQBT/YeIfsyAg6EJe3ncRZzHTmshN37+Me+sZyKaQpbYcPeZSb76
3BEF/3FqmqRvxSloEZ7H/PRe//F0L+afOH4JyTEtsCqJ6rok6yVmchVbIDyzbbe/
k9Fta0Txg2AO3taaaL9vEhWzEi/loJOV9Qb7bkpV3YypD8MEzFc++76wFw==
-----END CERTIFICATE-----
